
_main:

;VSaula054_USART_Recepcao_Interrupcao.c,8 :: 		void main() {
;VSaula054_USART_Recepcao_Interrupcao.c,10 :: 		UART1_Init(9600);
	MOVLW      51
	MOVWF      SPBRG+0
	BSF        TXSTA+0, 2
	CALL       _UART1_Init+0
;VSaula054_USART_Recepcao_Interrupcao.c,12 :: 		UART1_Write_Text("PIC");
	MOVLW      ?lstr1_VSaula054_USART_Recepcao_Interrupcao+0
	MOVWF      FARG_UART1_Write_Text_uart_text+0
	CALL       _UART1_Write_Text+0
;VSaula054_USART_Recepcao_Interrupcao.c,13 :: 		while(!UART1_Tx_Idle());
L_main0:
	CALL       _UART1_Tx_Idle+0
	MOVF       R0+0, 0
	BTFSS      STATUS+0, 2
	GOTO       L_main1
	GOTO       L_main0
L_main1:
;VSaula054_USART_Recepcao_Interrupcao.c,14 :: 		UART1_Write(13);
	MOVLW      13
	MOVWF      FARG_UART1_Write_data_+0
	CALL       _UART1_Write+0
;VSaula054_USART_Recepcao_Interrupcao.c,15 :: 		while(!UART1_Tx_Idle());
L_main2:
	CALL       _UART1_Tx_Idle+0
	MOVF       R0+0, 0
	BTFSS      STATUS+0, 2
	GOTO       L_main3
	GOTO       L_main2
L_main3:
;VSaula054_USART_Recepcao_Interrupcao.c,18 :: 		GIE_bit = 1;
	BSF        GIE_bit+0, 7
;VSaula054_USART_Recepcao_Interrupcao.c,19 :: 		PEIE_bit = 1;
	BSF        PEIE_bit+0, 6
;VSaula054_USART_Recepcao_Interrupcao.c,20 :: 		RCIE_bit = 1;
	BSF        RCIE_bit+0, 5
;VSaula054_USART_Recepcao_Interrupcao.c,22 :: 		TRISC6_bit = 0;
	BCF        TRISC6_bit+0, 6
;VSaula054_USART_Recepcao_Interrupcao.c,23 :: 		TRISC7_bit = 1;
	BSF        TRISC7_bit+0, 7
;VSaula054_USART_Recepcao_Interrupcao.c,25 :: 		TRISD = 0;
	CLRF       TRISD+0
;VSaula054_USART_Recepcao_Interrupcao.c,26 :: 		PORTD = 0;
	CLRF       PORTD+0
;VSaula054_USART_Recepcao_Interrupcao.c,28 :: 		while(1){
L_main4:
;VSaula054_USART_Recepcao_Interrupcao.c,30 :: 		}
	GOTO       L_main4
;VSaula054_USART_Recepcao_Interrupcao.c,33 :: 		}
	GOTO       $+0
; end of _main

_interrupt:
	MOVWF      R15+0
	SWAPF      STATUS+0, 0
	CLRF       STATUS+0
	MOVWF      ___saveSTATUS+0
	MOVF       PCLATH+0, 0
	MOVWF      ___savePCLATH+0
	CLRF       PCLATH+0

;VSaula054_USART_Recepcao_Interrupcao.c,36 :: 		void interrupt(){
;VSaula054_USART_Recepcao_Interrupcao.c,38 :: 		if(RCIF_bit){
	BTFSS      RCIF_bit+0, 5
	GOTO       L_interrupt6
;VSaula054_USART_Recepcao_Interrupcao.c,40 :: 		texto[c_texto] = UART1_Read();
	MOVF       _c_texto+0, 0
	ADDLW      _texto+0
	MOVWF      FLOC__interrupt+0
	CALL       _UART1_Read+0
	MOVF       FLOC__interrupt+0, 0
	MOVWF      FSR
	MOVF       R0+0, 0
	MOVWF      INDF+0
;VSaula054_USART_Recepcao_Interrupcao.c,42 :: 		if(texto[0] != '!'){
	MOVF       _texto+0, 0
	XORLW      33
	BTFSC      STATUS+0, 2
	GOTO       L_interrupt7
;VSaula054_USART_Recepcao_Interrupcao.c,43 :: 		c_texto = 0;
	CLRF       _c_texto+0
;VSaula054_USART_Recepcao_Interrupcao.c,44 :: 		} else {
	GOTO       L_interrupt8
L_interrupt7:
;VSaula054_USART_Recepcao_Interrupcao.c,45 :: 		if(texto[c_texto] == '#'){
	MOVF       _c_texto+0, 0
	ADDLW      _texto+0
	MOVWF      FSR
	MOVF       INDF+0, 0
	XORLW      35
	BTFSS      STATUS+0, 2
	GOTO       L_interrupt9
;VSaula054_USART_Recepcao_Interrupcao.c,47 :: 		c_texto = 0;
	CLRF       _c_texto+0
;VSaula054_USART_Recepcao_Interrupcao.c,48 :: 		if(texto[0] == '!'){
	MOVF       _texto+0, 0
	XORLW      33
	BTFSS      STATUS+0, 2
	GOTO       L_interrupt10
;VSaula054_USART_Recepcao_Interrupcao.c,49 :: 		if(texto[1] == 'l'){
	MOVF       _texto+1, 0
	XORLW      108
	BTFSS      STATUS+0, 2
	GOTO       L_interrupt11
;VSaula054_USART_Recepcao_Interrupcao.c,50 :: 		if(texto[2] == 'e'){
	MOVF       _texto+2, 0
	XORLW      101
	BTFSS      STATUS+0, 2
	GOTO       L_interrupt12
;VSaula054_USART_Recepcao_Interrupcao.c,51 :: 		if(texto[3] == 'd'){
	MOVF       _texto+3, 0
	XORLW      100
	BTFSS      STATUS+0, 2
	GOTO       L_interrupt13
;VSaula054_USART_Recepcao_Interrupcao.c,52 :: 		switch(texto[4]){
	GOTO       L_interrupt14
;VSaula054_USART_Recepcao_Interrupcao.c,53 :: 		case '0': PORTD &= 0b00000000; break; // apaga tudo!
L_interrupt16:
	MOVLW      0
	ANDWF      PORTD+0, 1
	GOTO       L_interrupt15
;VSaula054_USART_Recepcao_Interrupcao.c,54 :: 		case '1': PORTD |= 0b00000001; break; // acende LED 1 mantendo a condição dos anteriores
L_interrupt17:
	BSF        PORTD+0, 0
	GOTO       L_interrupt15
;VSaula054_USART_Recepcao_Interrupcao.c,55 :: 		case '2': PORTD |= 0b00000010; break;
L_interrupt18:
	BSF        PORTD+0, 1
	GOTO       L_interrupt15
;VSaula054_USART_Recepcao_Interrupcao.c,56 :: 		case '3': PORTD |= 0b00000100; break;
L_interrupt19:
	BSF        PORTD+0, 2
	GOTO       L_interrupt15
;VSaula054_USART_Recepcao_Interrupcao.c,57 :: 		case '4': PORTD |= 0b00001000; break;
L_interrupt20:
	BSF        PORTD+0, 3
	GOTO       L_interrupt15
;VSaula054_USART_Recepcao_Interrupcao.c,58 :: 		case '5': PORTD |= 0b00010000; break;
L_interrupt21:
	BSF        PORTD+0, 4
	GOTO       L_interrupt15
;VSaula054_USART_Recepcao_Interrupcao.c,59 :: 		case '6': PORTD |= 0b00100000; break;
L_interrupt22:
	BSF        PORTD+0, 5
	GOTO       L_interrupt15
;VSaula054_USART_Recepcao_Interrupcao.c,60 :: 		case '7': PORTD |= 0b01000000; break;
L_interrupt23:
	BSF        PORTD+0, 6
	GOTO       L_interrupt15
;VSaula054_USART_Recepcao_Interrupcao.c,61 :: 		case '8': PORTD |= 0b10000000; break;
L_interrupt24:
	BSF        PORTD+0, 7
	GOTO       L_interrupt15
;VSaula054_USART_Recepcao_Interrupcao.c,62 :: 		}
L_interrupt14:
	MOVF       _texto+4, 0
	XORLW      48
	BTFSC      STATUS+0, 2
	GOTO       L_interrupt16
	MOVF       _texto+4, 0
	XORLW      49
	BTFSC      STATUS+0, 2
	GOTO       L_interrupt17
	MOVF       _texto+4, 0
	XORLW      50
	BTFSC      STATUS+0, 2
	GOTO       L_interrupt18
	MOVF       _texto+4, 0
	XORLW      51
	BTFSC      STATUS+0, 2
	GOTO       L_interrupt19
	MOVF       _texto+4, 0
	XORLW      52
	BTFSC      STATUS+0, 2
	GOTO       L_interrupt20
	MOVF       _texto+4, 0
	XORLW      53
	BTFSC      STATUS+0, 2
	GOTO       L_interrupt21
	MOVF       _texto+4, 0
	XORLW      54
	BTFSC      STATUS+0, 2
	GOTO       L_interrupt22
	MOVF       _texto+4, 0
	XORLW      55
	BTFSC      STATUS+0, 2
	GOTO       L_interrupt23
	MOVF       _texto+4, 0
	XORLW      56
	BTFSC      STATUS+0, 2
	GOTO       L_interrupt24
L_interrupt15:
;VSaula054_USART_Recepcao_Interrupcao.c,63 :: 		}
L_interrupt13:
;VSaula054_USART_Recepcao_Interrupcao.c,64 :: 		}
L_interrupt12:
;VSaula054_USART_Recepcao_Interrupcao.c,65 :: 		}
L_interrupt11:
;VSaula054_USART_Recepcao_Interrupcao.c,66 :: 		}
L_interrupt10:
;VSaula054_USART_Recepcao_Interrupcao.c,68 :: 		} else {
	GOTO       L_interrupt25
L_interrupt9:
;VSaula054_USART_Recepcao_Interrupcao.c,69 :: 		c_texto++;
	INCF       _c_texto+0, 1
;VSaula054_USART_Recepcao_Interrupcao.c,70 :: 		if(c_texto > 5) c_texto = 0;
	MOVF       _c_texto+0, 0
	SUBLW      5
	BTFSC      STATUS+0, 0
	GOTO       L_interrupt26
	CLRF       _c_texto+0
L_interrupt26:
;VSaula054_USART_Recepcao_Interrupcao.c,71 :: 		}
L_interrupt25:
;VSaula054_USART_Recepcao_Interrupcao.c,72 :: 		}
L_interrupt8:
;VSaula054_USART_Recepcao_Interrupcao.c,74 :: 		RCIF_bit = 0;
	BCF        RCIF_bit+0, 5
;VSaula054_USART_Recepcao_Interrupcao.c,76 :: 		}
L_interrupt6:
;VSaula054_USART_Recepcao_Interrupcao.c,78 :: 		}
L__interrupt27:
	MOVF       ___savePCLATH+0, 0
	MOVWF      PCLATH+0
	SWAPF      ___saveSTATUS+0, 0
	MOVWF      STATUS+0
	SWAPF      R15+0, 1
	SWAPF      R15+0, 0
	RETFIE
; end of _interrupt
