CCS PCM C Compiler, Version 5.007, 61971               29-mai-23 08:17

               Filename:   C:\Users\ABMS-Telecom\Documents\PIC MP LAB\CODIFICADOS\aula009\aula009.lst

               ROM used:   1488 words (73%)
                           Largest free fragment is 560
               RAM used:   25 (11%) at main() level
                           47 (21%) worst case
               Stack used: 0 locations
               Stack size: 8

*
0000:  MOVLW  04
0001:  MOVWF  0A
0002:  GOTO   4A0
0003:  NOP
.................... #include <16F628A.h> 
.................... //////// Standard Header file for the PIC16F628A device //////////////// 
.................... #device PIC16F628A 
0004:  BCF    0A.0
0005:  BCF    0A.1
0006:  BCF    0A.2
0007:  ADDWF  02,F
0008:  RETLW  20
0009:  RETLW  20
000A:  RETLW  41
000B:  RETLW  42
000C:  RETLW  4D
000D:  RETLW  53
000E:  RETLW  20
000F:  RETLW  54
0010:  RETLW  65
0011:  RETLW  6C
0012:  RETLW  65
0013:  RETLW  63
0014:  RETLW  6F
0015:  RETLW  6D
0016:  RETLW  00
0017:  BCF    0A.0
0018:  BCF    0A.1
0019:  BCF    0A.2
001A:  ADDWF  02,F
001B:  RETLW  20
001C:  RETLW  20
001D:  RETLW  20
001E:  RETLW  42
001F:  RETLW  65
0020:  RETLW  6D
0021:  RETLW  20
0022:  RETLW  76
0023:  RETLW  69
0024:  RETLW  6E
0025:  RETLW  64
0026:  RETLW  6F
0027:  RETLW  21
0028:  RETLW  00
0029:  BCF    0A.0
002A:  BCF    0A.1
002B:  BCF    0A.2
002C:  ADDWF  02,F
002D:  RETLW  20
002E:  RETLW  20
002F:  RETLW  43
0030:  RETLW  75
0031:  RETLW  72
0032:  RETLW  73
0033:  RETLW  6F
0034:  RETLW  20
0035:  RETLW  64
0036:  RETLW  65
0037:  RETLW  20
0038:  RETLW  50
0039:  RETLW  49
003A:  RETLW  43
003B:  RETLW  00
003C:  BCF    0A.0
003D:  BCF    0A.1
003E:  BCF    0A.2
003F:  ADDWF  02,F
0040:  RETLW  20
0041:  RETLW  20
0042:  RETLW  20
0043:  RETLW  20
0044:  RETLW  4A
0045:  RETLW  61
0046:  RETLW  6E
0047:  RETLW  20
0048:  RETLW  32
0049:  RETLW  30
004A:  RETLW  32
004B:  RETLW  33
004C:  RETLW  00
004D:  BCF    0A.0
004E:  BCF    0A.1
004F:  BCF    0A.2
0050:  ADDWF  02,F
0051:  RETLW  20
0052:  RETLW  20
0053:  RETLW  20
0054:  RETLW  43
0055:  RETLW  61
0056:  RETLW  72
0057:  RETLW  61
0058:  RETLW  63
0059:  RETLW  74
005A:  RETLW  65
005B:  RETLW  72
005C:  RETLW  65
005D:  RETLW  73
005E:  RETLW  00
005F:  BCF    0A.0
0060:  BCF    0A.1
0061:  BCF    0A.2
0062:  ADDWF  02,F
0063:  RETLW  20
0064:  RETLW  20
0065:  RETLW  54
0066:  RETLW  65
0067:  RETLW  73
0068:  RETLW  74
0069:  RETLW  65
006A:  RETLW  20
006B:  RETLW  70
006C:  RETLW  72
006D:  RETLW  69
006E:  RETLW  6E
006F:  RETLW  74
0070:  RETLW  66
0071:  RETLW  00
0072:  BCF    0A.0
0073:  BCF    0A.1
0074:  BCF    0A.2
0075:  ADDWF  02,F
0076:  RETLW  20
0077:  RETLW  56
0078:  RETLW  61
0079:  RETLW  6C
007A:  RETLW  6F
007B:  RETLW  72
007C:  RETLW  20
007D:  RETLW  52
007E:  RETLW  24
007F:  RETLW  20
0080:  RETLW  25
0081:  RETLW  35
0082:  RETLW  2E
0083:  RETLW  32
0084:  RETLW  66
0085:  RETLW  00
*
01BD:  MOVLW  80
01BE:  BTFSC  03.1
01BF:  XORWF  39,F
01C0:  CLRF   3E
01C1:  CLRF   3F
01C2:  MOVF   35,W
01C3:  MOVWF  3D
01C4:  MOVF   39,W
01C5:  XORWF  3D,F
01C6:  MOVF   34,W
01C7:  BTFSC  03.2
01C8:  GOTO   2AD
01C9:  MOVWF  3C
01CA:  MOVWF  77
01CB:  MOVF   38,W
01CC:  BTFSC  03.2
01CD:  GOTO   2B6
01CE:  SUBWF  3C,F
01CF:  BTFSC  03.2
01D0:  GOTO   252
01D1:  BTFSS  03.0
01D2:  GOTO   210
01D3:  MOVF   39,W
01D4:  MOVWF  42
01D5:  BSF    42.7
01D6:  MOVF   3A,W
01D7:  MOVWF  41
01D8:  MOVF   3B,W
01D9:  MOVWF  40
01DA:  CLRF   3F
01DB:  BCF    03.0
01DC:  RRF    42,F
01DD:  RRF    41,F
01DE:  RRF    40,F
01DF:  RRF    3F,F
01E0:  DECFSZ 3C,F
01E1:  GOTO   1DA
01E2:  BTFSS  3D.7
01E3:  GOTO   1E7
01E4:  BSF    3E.0
01E5:  GOTO   2CA
01E6:  BCF    3E.0
01E7:  BCF    3C.0
01E8:  BSF    3E.4
01E9:  MOVLW  37
01EA:  MOVWF  04
01EB:  BCF    03.7
01EC:  GOTO   2DF
01ED:  BCF    3E.4
01EE:  BTFSC  3D.7
01EF:  GOTO   1FA
01F0:  BTFSS  3C.0
01F1:  GOTO   205
01F2:  RRF    42,F
01F3:  RRF    41,F
01F4:  RRF    40,F
01F5:  RRF    3F,F
01F6:  INCF   77,F
01F7:  BTFSC  03.2
01F8:  GOTO   2C5
01F9:  GOTO   205
01FA:  BTFSC  42.7
01FB:  GOTO   208
01FC:  BCF    03.0
01FD:  RLF    3F,F
01FE:  RLF    40,F
01FF:  RLF    41,F
0200:  RLF    42,F
0201:  DECF   77,F
0202:  BTFSC  03.2
0203:  GOTO   2C5
0204:  GOTO   1FA
0205:  BSF    3E.6
0206:  GOTO   272
0207:  BCF    3E.6
0208:  MOVF   35,W
0209:  MOVWF  3D
020A:  BTFSS  3D.7
020B:  GOTO   20E
020C:  BSF    42.7
020D:  GOTO   2BE
020E:  BCF    42.7
020F:  GOTO   2BE
0210:  MOVF   38,W
0211:  MOVWF  3C
0212:  MOVWF  77
0213:  MOVF   34,W
0214:  SUBWF  3C,F
0215:  MOVF   35,W
0216:  MOVWF  42
0217:  BSF    42.7
0218:  MOVF   36,W
0219:  MOVWF  41
021A:  MOVF   37,W
021B:  MOVWF  40
021C:  CLRF   3F
021D:  BCF    03.0
021E:  RRF    42,F
021F:  RRF    41,F
0220:  RRF    40,F
0221:  RRF    3F,F
0222:  DECFSZ 3C,F
0223:  GOTO   21C
0224:  BTFSS  3D.7
0225:  GOTO   229
0226:  BSF    3E.1
0227:  GOTO   2CA
0228:  BCF    3E.1
0229:  BCF    3C.0
022A:  BSF    3E.5
022B:  MOVLW  3B
022C:  MOVWF  04
022D:  BCF    03.7
022E:  GOTO   2DF
022F:  BCF    3E.5
0230:  BTFSC  3D.7
0231:  GOTO   23C
0232:  BTFSS  3C.0
0233:  GOTO   247
0234:  RRF    42,F
0235:  RRF    41,F
0236:  RRF    40,F
0237:  RRF    3F,F
0238:  INCF   77,F
0239:  BTFSC  03.2
023A:  GOTO   2C5
023B:  GOTO   247
023C:  BTFSC  42.7
023D:  GOTO   24A
023E:  BCF    03.0
023F:  RLF    3F,F
0240:  RLF    40,F
0241:  RLF    41,F
0242:  RLF    42,F
0243:  DECF   77,F
0244:  BTFSC  03.2
0245:  GOTO   2C5
0246:  GOTO   23C
0247:  BSF    3E.7
0248:  GOTO   272
0249:  BCF    3E.7
024A:  MOVF   39,W
024B:  MOVWF  3D
024C:  BTFSS  3D.7
024D:  GOTO   250
024E:  BSF    42.7
024F:  GOTO   2BE
0250:  BCF    42.7
0251:  GOTO   2BE
0252:  MOVF   39,W
0253:  MOVWF  42
0254:  BSF    42.7
0255:  MOVF   3A,W
0256:  MOVWF  41
0257:  MOVF   3B,W
0258:  MOVWF  40
0259:  BTFSS  3D.7
025A:  GOTO   25F
025B:  BCF    42.7
025C:  BSF    3E.2
025D:  GOTO   2CA
025E:  BCF    3E.2
025F:  CLRF   3F
0260:  BCF    3C.0
0261:  MOVLW  37
0262:  MOVWF  04
0263:  BCF    03.7
0264:  GOTO   2DF
0265:  BTFSC  3D.7
0266:  GOTO   288
0267:  MOVF   35,W
0268:  MOVWF  3D
0269:  BTFSS  3C.0
026A:  GOTO   272
026B:  RRF    42,F
026C:  RRF    41,F
026D:  RRF    40,F
026E:  RRF    3F,F
026F:  INCF   77,F
0270:  BTFSC  03.2
0271:  GOTO   2C5
0272:  BTFSS  3F.7
0273:  GOTO   283
0274:  INCF   40,F
0275:  BTFSS  03.2
0276:  GOTO   283
0277:  INCF   41,F
0278:  BTFSS  03.2
0279:  GOTO   283
027A:  INCF   42,F
027B:  BTFSS  03.2
027C:  GOTO   283
027D:  RRF    42,F
027E:  RRF    41,F
027F:  RRF    40,F
0280:  INCF   77,F
0281:  BTFSC  03.2
0282:  GOTO   2C5
0283:  BTFSC  3E.6
0284:  GOTO   207
0285:  BTFSC  3E.7
0286:  GOTO   249
0287:  GOTO   2A7
0288:  MOVLW  80
0289:  XORWF  42,F
028A:  BTFSS  42.7
028B:  GOTO   290
028C:  GOTO   2CA
028D:  MOVF   39,W
028E:  MOVWF  3D
028F:  GOTO   29D
0290:  MOVF   35,W
0291:  MOVWF  3D
0292:  MOVF   42,F
0293:  BTFSS  03.2
0294:  GOTO   29D
0295:  MOVF   41,F
0296:  BTFSS  03.2
0297:  GOTO   29D
0298:  MOVF   40,F
0299:  BTFSS  03.2
029A:  GOTO   29D
029B:  CLRF   77
029C:  GOTO   2BE
029D:  BTFSC  42.7
029E:  GOTO   2A7
029F:  BCF    03.0
02A0:  RLF    3F,F
02A1:  RLF    40,F
02A2:  RLF    41,F
02A3:  RLF    42,F
02A4:  DECFSZ 77,F
02A5:  GOTO   29D
02A6:  GOTO   2C5
02A7:  BTFSS  3D.7
02A8:  GOTO   2AB
02A9:  BSF    42.7
02AA:  GOTO   2BE
02AB:  BCF    42.7
02AC:  GOTO   2BE
02AD:  MOVF   38,W
02AE:  MOVWF  77
02AF:  MOVF   39,W
02B0:  MOVWF  42
02B1:  MOVF   3A,W
02B2:  MOVWF  41
02B3:  MOVF   3B,W
02B4:  MOVWF  40
02B5:  GOTO   2BE
02B6:  MOVF   34,W
02B7:  MOVWF  77
02B8:  MOVF   35,W
02B9:  MOVWF  42
02BA:  MOVF   36,W
02BB:  MOVWF  41
02BC:  MOVF   37,W
02BD:  MOVWF  40
02BE:  MOVF   42,W
02BF:  MOVWF  78
02C0:  MOVF   41,W
02C1:  MOVWF  79
02C2:  MOVF   40,W
02C3:  MOVWF  7A
02C4:  GOTO   2FD
02C5:  CLRF   77
02C6:  CLRF   78
02C7:  CLRF   79
02C8:  CLRF   7A
02C9:  GOTO   2FD
02CA:  CLRF   3F
02CB:  COMF   40,F
02CC:  COMF   41,F
02CD:  COMF   42,F
02CE:  COMF   3F,F
02CF:  INCF   3F,F
02D0:  BTFSS  03.2
02D1:  GOTO   2D8
02D2:  INCF   40,F
02D3:  BTFSS  03.2
02D4:  GOTO   2D8
02D5:  INCF   41,F
02D6:  BTFSC  03.2
02D7:  INCF   42,F
02D8:  BTFSC  3E.0
02D9:  GOTO   1E6
02DA:  BTFSC  3E.1
02DB:  GOTO   228
02DC:  BTFSC  3E.2
02DD:  GOTO   25E
02DE:  GOTO   28D
02DF:  MOVF   00,W
02E0:  ADDWF  40,F
02E1:  BTFSS  03.0
02E2:  GOTO   2E9
02E3:  INCF   41,F
02E4:  BTFSS  03.2
02E5:  GOTO   2E9
02E6:  INCF   42,F
02E7:  BTFSC  03.2
02E8:  BSF    3C.0
02E9:  DECF   04,F
02EA:  MOVF   00,W
02EB:  ADDWF  41,F
02EC:  BTFSS  03.0
02ED:  GOTO   2F1
02EE:  INCF   42,F
02EF:  BTFSC  03.2
02F0:  BSF    3C.0
02F1:  DECF   04,F
02F2:  MOVF   00,W
02F3:  BTFSS  00.7
02F4:  XORLW  80
02F5:  ADDWF  42,F
02F6:  BTFSC  03.0
02F7:  BSF    3C.0
02F8:  BTFSC  3E.4
02F9:  GOTO   1ED
02FA:  BTFSC  3E.5
02FB:  GOTO   22F
02FC:  GOTO   265
02FD:  RETURN
02FE:  BTFSC  03.1
02FF:  GOTO   303
0300:  MOVLW  45
0301:  MOVWF  04
0302:  BCF    03.7
0303:  CLRF   77
0304:  CLRF   78
0305:  CLRF   79
0306:  CLRF   7A
0307:  CLRF   45
0308:  CLRF   46
0309:  CLRF   47
030A:  CLRF   48
030B:  MOVF   44,W
030C:  IORWF  43,W
030D:  IORWF  42,W
030E:  IORWF  41,W
030F:  BTFSC  03.2
0310:  GOTO   341
0311:  MOVLW  20
0312:  MOVWF  49
0313:  BCF    03.0
0314:  RLF    3D,F
0315:  RLF    3E,F
0316:  RLF    3F,F
0317:  RLF    40,F
0318:  RLF    45,F
0319:  RLF    46,F
031A:  RLF    47,F
031B:  RLF    48,F
031C:  MOVF   44,W
031D:  SUBWF  48,W
031E:  BTFSS  03.2
031F:  GOTO   32A
0320:  MOVF   43,W
0321:  SUBWF  47,W
0322:  BTFSS  03.2
0323:  GOTO   32A
0324:  MOVF   42,W
0325:  SUBWF  46,W
0326:  BTFSS  03.2
0327:  GOTO   32A
0328:  MOVF   41,W
0329:  SUBWF  45,W
032A:  BTFSS  03.0
032B:  GOTO   33B
032C:  MOVF   41,W
032D:  SUBWF  45,F
032E:  MOVF   42,W
032F:  BTFSS  03.0
0330:  INCFSZ 42,W
0331:  SUBWF  46,F
0332:  MOVF   43,W
0333:  BTFSS  03.0
0334:  INCFSZ 43,W
0335:  SUBWF  47,F
0336:  MOVF   44,W
0337:  BTFSS  03.0
0338:  INCFSZ 44,W
0339:  SUBWF  48,F
033A:  BSF    03.0
033B:  RLF    77,F
033C:  RLF    78,F
033D:  RLF    79,F
033E:  RLF    7A,F
033F:  DECFSZ 49,F
0340:  GOTO   313
0341:  MOVF   45,W
0342:  MOVWF  00
0343:  INCF   04,F
0344:  MOVF   46,W
0345:  MOVWF  00
0346:  INCF   04,F
0347:  MOVF   47,W
0348:  MOVWF  00
0349:  INCF   04,F
034A:  MOVF   48,W
034B:  MOVWF  00
034C:  RETURN
034D:  MOVF   04,W
034E:  MOVWF  35
034F:  MOVF   34,W
0350:  MOVWF  37
0351:  BTFSC  03.2
0352:  GOTO   3DF
0353:  MOVF   33,W
0354:  MOVWF  40
0355:  MOVF   32,W
0356:  MOVWF  3F
0357:  MOVF   31,W
0358:  MOVWF  3E
0359:  MOVF   30,W
035A:  MOVWF  3D
035B:  CLRF   44
035C:  CLRF   43
035D:  MOVLW  20
035E:  MOVWF  42
035F:  MOVLW  82
0360:  MOVWF  41
0361:  MOVF   3D,W
0362:  BTFSC  03.2
0363:  GOTO   3D1
0364:  MOVWF  45
0365:  MOVF   41,W
0366:  BTFSC  03.2
0367:  GOTO   3D1
0368:  ADDWF  45,F
0369:  BTFSC  03.0
036A:  GOTO   372
036B:  MOVLW  7F
036C:  SUBWF  45,F
036D:  BTFSS  03.0
036E:  GOTO   3D1
036F:  BTFSC  03.2
0370:  GOTO   3D1
0371:  GOTO   376
0372:  MOVLW  81
0373:  ADDWF  45,F
0374:  BTFSC  03.0
0375:  GOTO   3D1
0376:  MOVF   45,W
0377:  MOVWF  77
0378:  CLRF   78
0379:  CLRF   79
037A:  CLRF   7A
037B:  MOVF   3E,W
037C:  MOVWF  49
037D:  BSF    49.7
037E:  MOVF   3F,W
037F:  MOVWF  48
0380:  MOVF   40,W
0381:  MOVWF  47
0382:  MOVLW  18
0383:  MOVWF  45
0384:  CLRF   46
0385:  BTFSS  47.0
0386:  GOTO   39F
0387:  MOVF   44,W
0388:  ADDWF  7A,F
0389:  BTFSS  03.0
038A:  GOTO   391
038B:  INCF   79,F
038C:  BTFSS  03.2
038D:  GOTO   391
038E:  INCF   78,F
038F:  BTFSC  03.2
0390:  BSF    46.7
0391:  MOVF   43,W
0392:  ADDWF  79,F
0393:  BTFSS  03.0
0394:  GOTO   398
0395:  INCF   78,F
0396:  BTFSC  03.2
0397:  BSF    46.7
0398:  MOVF   42,W
0399:  MOVWF  3F
039A:  BSF    3F.7
039B:  MOVF   3F,W
039C:  ADDWF  78,F
039D:  BTFSC  03.0
039E:  BSF    46.7
039F:  RLF    46,F
03A0:  RRF    78,F
03A1:  RRF    79,F
03A2:  RRF    7A,F
03A3:  RRF    49,F
03A4:  RRF    48,F
03A5:  RRF    47,F
03A6:  BCF    03.0
03A7:  DECFSZ 45,F
03A8:  GOTO   384
03A9:  MOVLW  01
03AA:  ADDWF  77,F
03AB:  BTFSC  03.0
03AC:  GOTO   3D1
03AD:  BTFSC  78.7
03AE:  GOTO   3B6
03AF:  RLF    49,F
03B0:  RLF    7A,F
03B1:  RLF    79,F
03B2:  RLF    78,F
03B3:  DECF   77,F
03B4:  BTFSC  03.2
03B5:  GOTO   3D1
03B6:  BTFSS  49.7
03B7:  GOTO   3C7
03B8:  INCF   7A,F
03B9:  BTFSS  03.2
03BA:  GOTO   3C7
03BB:  INCF   79,F
03BC:  BTFSS  03.2
03BD:  GOTO   3C7
03BE:  INCF   78,F
03BF:  BTFSS  03.2
03C0:  GOTO   3C7
03C1:  RRF    78,F
03C2:  RRF    79,F
03C3:  RRF    7A,F
03C4:  INCF   77,F
03C5:  BTFSC  03.2
03C6:  GOTO   3D1
03C7:  MOVF   3E,W
03C8:  MOVWF  46
03C9:  MOVF   42,W
03CA:  XORWF  46,F
03CB:  BTFSS  46.7
03CC:  GOTO   3CF
03CD:  BSF    78.7
03CE:  GOTO   3D5
03CF:  BCF    78.7
03D0:  GOTO   3D5
03D1:  CLRF   77
03D2:  CLRF   78
03D3:  CLRF   79
03D4:  CLRF   7A
03D5:  MOVF   7A,W
03D6:  MOVWF  33
03D7:  MOVF   79,W
03D8:  MOVWF  32
03D9:  MOVF   78,W
03DA:  MOVWF  31
03DB:  MOVF   77,W
03DC:  MOVWF  30
03DD:  DECFSZ 37,F
03DE:  GOTO   353
03DF:  MOVF   33,W
03E0:  MOVWF  40
03E1:  MOVF   32,W
03E2:  MOVWF  3F
03E3:  MOVF   31,W
03E4:  MOVWF  3E
03E5:  MOVF   30,W
03E6:  MOVWF  3D
03E7:  MOVF   3D,W
03E8:  SUBLW  B6
03E9:  MOVWF  3D
03EA:  CLRF   7A
03EB:  MOVF   3E,W
03EC:  MOVWF  41
03ED:  BSF    3E.7
03EE:  BCF    03.0
03EF:  RRF    3E,F
03F0:  RRF    3F,F
03F1:  RRF    40,F
03F2:  RRF    7A,F
03F3:  RRF    79,F
03F4:  RRF    78,F
03F5:  RRF    77,F
03F6:  DECFSZ 3D,F
03F7:  GOTO   3EE
03F8:  BTFSS  41.7
03F9:  GOTO   405
03FA:  COMF   77,F
03FB:  COMF   78,F
03FC:  COMF   79,F
03FD:  COMF   7A,F
03FE:  INCF   77,F
03FF:  BTFSC  03.2
0400:  INCF   78,F
0401:  BTFSC  03.2
0402:  INCF   79,F
0403:  BTFSC  03.2
0404:  INCF   7A,F
0405:  MOVF   7A,W
0406:  MOVWF  33
0407:  MOVF   79,W
0408:  MOVWF  32
0409:  MOVF   78,W
040A:  MOVWF  31
040B:  MOVF   77,W
040C:  MOVWF  30
040D:  BTFSS  33.7
040E:  GOTO   41C
040F:  DECF   35,F
0410:  BSF    35.5
0411:  COMF   30,F
0412:  COMF   31,F
0413:  COMF   32,F
0414:  COMF   33,F
0415:  INCF   30,F
0416:  BTFSC  03.2
0417:  INCF   31,F
0418:  BTFSC  03.2
0419:  INCF   32,F
041A:  BTFSC  03.2
041B:  INCF   33,F
041C:  MOVLW  3B
041D:  MOVWF  3C
041E:  MOVLW  9A
041F:  MOVWF  3B
0420:  MOVLW  CA
0421:  MOVWF  3A
0422:  CLRF   39
0423:  MOVLW  0A
0424:  MOVWF  37
0425:  MOVF   34,W
0426:  BTFSC  03.2
0427:  INCF   35,F
0428:  BSF    03.1
0429:  MOVLW  30
042A:  MOVWF  04
042B:  BCF    03.7
042C:  MOVF   33,W
042D:  MOVWF  40
042E:  MOVF   32,W
042F:  MOVWF  3F
0430:  MOVF   31,W
0431:  MOVWF  3E
0432:  MOVF   30,W
0433:  MOVWF  3D
0434:  MOVF   3C,W
0435:  MOVWF  44
0436:  MOVF   3B,W
0437:  MOVWF  43
0438:  MOVF   3A,W
0439:  MOVWF  42
043A:  MOVF   39,W
043B:  MOVWF  41
043C:  CALL   2FE
043D:  MOVF   78,W
043E:  MOVF   77,F
043F:  BTFSS  03.2
0440:  GOTO   454
0441:  INCF   34,W
0442:  SUBWF  37,W
0443:  BTFSC  03.2
0444:  GOTO   454
0445:  MOVF   35,W
0446:  BTFSC  03.2
0447:  GOTO   456
0448:  ANDLW  0F
0449:  SUBWF  37,W
044A:  BTFSC  03.2
044B:  GOTO   44E
044C:  BTFSC  03.0
044D:  GOTO   486
044E:  BTFSC  35.7
044F:  GOTO   486
0450:  BTFSC  35.6
0451:  GOTO   456
0452:  MOVLW  20
0453:  GOTO   482
0454:  MOVLW  20
0455:  ANDWF  35,F
0456:  BTFSS  35.5
0457:  GOTO   464
0458:  BCF    35.5
0459:  MOVF   34,W
045A:  BTFSS  03.2
045B:  DECF   35,F
045C:  MOVF   77,W
045D:  MOVWF  35
045E:  MOVLW  2D
045F:  MOVWF  3D
0460:  CALL   0F2
0461:  MOVF   35,W
0462:  MOVWF  77
0463:  CLRF   35
0464:  MOVF   34,W
0465:  SUBWF  37,W
0466:  BTFSS  03.2
0467:  GOTO   472
0468:  MOVF   77,W
0469:  MOVWF  35
046A:  MOVLW  2E
046B:  MOVWF  3D
046C:  CALL   0F2
046D:  MOVF   35,W
046E:  MOVWF  77
046F:  MOVLW  20
0470:  ANDWF  35,F
0471:  MOVLW  00
0472:  MOVLW  30
0473:  BTFSS  35.5
0474:  GOTO   482
0475:  BCF    35.5
0476:  MOVF   34,W
0477:  BTFSS  03.2
0478:  DECF   35,F
0479:  MOVF   77,W
047A:  MOVWF  35
047B:  MOVLW  2D
047C:  MOVWF  3D
047D:  CALL   0F2
047E:  MOVF   35,W
047F:  MOVWF  77
0480:  CLRF   35
0481:  MOVLW  30
0482:  ADDWF  77,F
0483:  MOVF   77,W
0484:  MOVWF  3D
0485:  CALL   0F2
0486:  BCF    03.1
0487:  MOVF   3C,W
0488:  MOVWF  40
0489:  MOVF   3B,W
048A:  MOVWF  3F
048B:  MOVF   3A,W
048C:  MOVWF  3E
048D:  MOVF   39,W
048E:  MOVWF  3D
048F:  CLRF   44
0490:  CLRF   43
0491:  CLRF   42
0492:  MOVLW  0A
0493:  MOVWF  41
0494:  CALL   2FE
0495:  MOVF   7A,W
0496:  MOVWF  3C
0497:  MOVF   79,W
0498:  MOVWF  3B
0499:  MOVF   78,W
049A:  MOVWF  3A
049B:  MOVF   77,W
049C:  MOVWF  39
049D:  DECFSZ 37,F
049E:  GOTO   428
049F:  GOTO   5C1 (RETURN)
....................  
.................... #list 
....................  
.................... #include "configPIC.h" 
.................... #fuses XT, NOWDT, NOLVP 
.................... #use delay(clock=4000000) 
*
0086:  MOVLW  40
0087:  MOVWF  04
0088:  BCF    03.7
0089:  MOVF   00,W
008A:  BTFSC  03.2
008B:  GOTO   09A
008C:  MOVLW  01
008D:  MOVWF  78
008E:  CLRF   77
008F:  DECFSZ 77,F
0090:  GOTO   08F
0091:  DECFSZ 78,F
0092:  GOTO   08E
0093:  MOVLW  4A
0094:  MOVWF  77
0095:  DECFSZ 77,F
0096:  GOTO   095
0097:  GOTO   098
0098:  DECFSZ 00,F
0099:  GOTO   08C
009A:  RETURN
.................... #use fast_io(b) 
....................  
.................... void inicia_lcd(void); 
.................... void LCD_texto(char texto); 
.................... void LCD_comando(int comando); 
.................... void LCD_nibble(int dado); 
.................... void toggle_enable(void); 
.................... void characteres(void); 
....................  
.................... #define rs			pin_a0 
.................... #define enable		pin_a1 
.................... #define limpa_LCD	0x01 
.................... #define Linha_1		0x80 
.................... #define Linha_2		0xC0 
....................  
.................... #include "LCDteste.c" 
....................  
....................  
.................... void LCD_nibble(int dado){ 
.................... 	output_bit(pin_b4, bit_test(dado, 0)); 
009B:  BTFSC  3F.0
009C:  GOTO   09F
009D:  BCF    06.4
009E:  GOTO   0A0
009F:  BSF    06.4
.................... 	output_bit(pin_b5, bit_test(dado, 1)); 
00A0:  BTFSC  3F.1
00A1:  GOTO   0A4
00A2:  BCF    06.5
00A3:  GOTO   0A5
00A4:  BSF    06.5
.................... 	output_bit(pin_b6, bit_test(dado, 2)); 
00A5:  BTFSC  3F.2
00A6:  GOTO   0A9
00A7:  BCF    06.6
00A8:  GOTO   0AA
00A9:  BSF    06.6
.................... 	output_bit(pin_b7, bit_test(dado, 3)); 
00AA:  BTFSC  3F.3
00AB:  GOTO   0AE
00AC:  BCF    06.7
00AD:  GOTO   0AF
00AE:  BSF    06.7
.................... 	toggle_enable(); 
*
00BA:  RETURN
.................... } 
....................  
.................... void inicia_lcd(void){ 
.................... 	output_low(rs); 
*
00D2:  BSF    03.5
00D3:  BCF    05.0
00D4:  BCF    03.5
00D5:  BCF    05.0
.................... 	delay_ms(15); 
00D6:  MOVLW  0F
00D7:  MOVWF  40
00D8:  CALL   086
.................... 	LCD_comando(0x03); 
00D9:  MOVLW  03
00DA:  MOVWF  30
00DB:  CALL   0BB
.................... 	LCD_comando(0x02); 
00DC:  MOVLW  02
00DD:  MOVWF  30
00DE:  CALL   0BB
.................... 	delay_ms(1); 
00DF:  MOVLW  01
00E0:  MOVWF  40
00E1:  CALL   086
.................... 	LCD_comando(0x28); 
00E2:  MOVLW  28
00E3:  MOVWF  30
00E4:  CALL   0BB
.................... 	LCD_comando(0x0c); 
00E5:  MOVLW  0C
00E6:  MOVWF  30
00E7:  CALL   0BB
.................... 	LCD_comando(0x06); 
00E8:  MOVLW  06
00E9:  MOVWF  30
00EA:  CALL   0BB
.................... 	LCD_comando(limpa_LCD); 
00EB:  MOVLW  01
00EC:  MOVWF  30
00ED:  CALL   0BB
.................... 	delay_ms(20); 
00EE:  MOVLW  14
00EF:  MOVWF  40
00F0:  CALL   086
00F1:  GOTO   4C0 (RETURN)
.................... } 
....................  
.................... void LCD_texto(char texto){ 
.................... 	output_high(rs); 
00F2:  BSF    03.5
00F3:  BCF    05.0
00F4:  BCF    03.5
00F5:  BSF    05.0
.................... 	delay_ms(2); 
00F6:  MOVLW  02
00F7:  MOVWF  40
00F8:  CALL   086
.................... 	LCD_nibble(texto>>4); 
00F9:  SWAPF  3D,W
00FA:  MOVWF  3E
00FB:  MOVLW  0F
00FC:  ANDWF  3E,F
00FD:  MOVF   3E,W
00FE:  MOVWF  3F
00FF:  CALL   09B
.................... 	LCD_nibble(texto&0x0F); 
0100:  MOVF   3D,W
0101:  ANDLW  0F
0102:  MOVWF  3E
0103:  MOVWF  3F
0104:  CALL   09B
.................... 	delay_ms(2); 
0105:  MOVLW  02
0106:  MOVWF  40
0107:  CALL   086
0108:  RETURN
.................... } 
....................  
.................... void LCD_comando(int comando){ 
.................... 	output_low(rs); 
*
00BB:  BSF    03.5
00BC:  BCF    05.0
00BD:  BCF    03.5
00BE:  BCF    05.0
.................... 	delay_ms(2); 
00BF:  MOVLW  02
00C0:  MOVWF  40
00C1:  CALL   086
.................... 	LCD_nibble(comando>>4); 
00C2:  SWAPF  30,W
00C3:  MOVWF  31
00C4:  MOVLW  0F
00C5:  ANDWF  31,F
00C6:  MOVF   31,W
00C7:  MOVWF  3F
00C8:  CALL   09B
.................... 	LCD_nibble(comando&0x0F); 
00C9:  MOVF   30,W
00CA:  ANDLW  0F
00CB:  MOVWF  31
00CC:  MOVWF  3F
00CD:  CALL   09B
.................... 	delay_ms(2); 
00CE:  MOVLW  02
00CF:  MOVWF  40
00D0:  CALL   086
00D1:  RETURN
.................... } 
....................  
.................... void toggle_enable(void){ 
.................... 	output_high(enable); 
*
00AF:  BSF    03.5
00B0:  BCF    05.1
00B1:  BCF    03.5
00B2:  BSF    05.1
.................... 	delay_ms(1); 
00B3:  MOVLW  01
00B4:  MOVWF  40
00B5:  CALL   086
.................... 	output_low(enable); 
00B6:  BSF    03.5
00B7:  BCF    05.1
00B8:  BCF    03.5
00B9:  BCF    05.1
.................... } 
....................  
.................... void characteres(void){ 
.................... 	LCD_comando(0b01000000); 
*
0109:  MOVLW  40
010A:  MOVWF  30
010B:  CALL   0BB
.................... 	LCD_texto(0b00000000); 
010C:  CLRF   3D
010D:  CALL   0F2
.................... 	LCD_texto(0b00001010); 
010E:  MOVLW  0A
010F:  MOVWF  3D
0110:  CALL   0F2
.................... 	LCD_texto(0b00001010); 
0111:  MOVLW  0A
0112:  MOVWF  3D
0113:  CALL   0F2
.................... 	LCD_texto(0b00000000); 
0114:  CLRF   3D
0115:  CALL   0F2
.................... 	LCD_texto(0b00010001); 
0116:  MOVLW  11
0117:  MOVWF  3D
0118:  CALL   0F2
.................... 	LCD_texto(0b00001110); 
0119:  MOVLW  0E
011A:  MOVWF  3D
011B:  CALL   0F2
.................... 	LCD_texto(0b00000000); 
011C:  CLRF   3D
011D:  CALL   0F2
.................... 	LCD_texto(0b00000000); 
011E:  CLRF   3D
011F:  CALL   0F2
....................  
.................... 	LCD_texto(0b00000000); 
0120:  CLRF   3D
0121:  CALL   0F2
.................... 	LCD_texto(0b00001010); 
0122:  MOVLW  0A
0123:  MOVWF  3D
0124:  CALL   0F2
.................... 	LCD_texto(0b00001010); 
0125:  MOVLW  0A
0126:  MOVWF  3D
0127:  CALL   0F2
.................... 	LCD_texto(0b00000000); 
0128:  CLRF   3D
0129:  CALL   0F2
.................... 	LCD_texto(0b00001110); 
012A:  MOVLW  0E
012B:  MOVWF  3D
012C:  CALL   0F2
.................... 	LCD_texto(0b00010001); 
012D:  MOVLW  11
012E:  MOVWF  3D
012F:  CALL   0F2
.................... 	LCD_texto(0b00000000); 
0130:  CLRF   3D
0131:  CALL   0F2
.................... 	LCD_texto(0b00000000); 
0132:  CLRF   3D
0133:  CALL   0F2
....................  
.................... 	LCD_texto(0b00000000); 
0134:  CLRF   3D
0135:  CALL   0F2
.................... 	LCD_texto(0b00000000); 
0136:  CLRF   3D
0137:  CALL   0F2
.................... 	LCD_texto(0b00001010); 
0138:  MOVLW  0A
0139:  MOVWF  3D
013A:  CALL   0F2
.................... 	LCD_texto(0b00010101); 
013B:  MOVLW  15
013C:  MOVWF  3D
013D:  CALL   0F2
.................... 	LCD_texto(0b00010001); 
013E:  MOVLW  11
013F:  MOVWF  3D
0140:  CALL   0F2
.................... 	LCD_texto(0b00001010); 
0141:  MOVLW  0A
0142:  MOVWF  3D
0143:  CALL   0F2
.................... 	LCD_texto(0b00000100); 
0144:  MOVLW  04
0145:  MOVWF  3D
0146:  CALL   0F2
.................... 	LCD_texto(0b00000000); 
0147:  CLRF   3D
0148:  CALL   0F2
....................  
.................... 	LCD_texto(0b00001110); 
0149:  MOVLW  0E
014A:  MOVWF  3D
014B:  CALL   0F2
.................... 	LCD_texto(0b00010001); 
014C:  MOVLW  11
014D:  MOVWF  3D
014E:  CALL   0F2
.................... 	LCD_texto(0b00010001); 
014F:  MOVLW  11
0150:  MOVWF  3D
0151:  CALL   0F2
.................... 	LCD_texto(0b00010001); 
0152:  MOVLW  11
0153:  MOVWF  3D
0154:  CALL   0F2
.................... 	LCD_texto(0b00010001); 
0155:  MOVLW  11
0156:  MOVWF  3D
0157:  CALL   0F2
.................... 	LCD_texto(0b00010001); 
0158:  MOVLW  11
0159:  MOVWF  3D
015A:  CALL   0F2
.................... 	LCD_texto(0b00011111); 
015B:  MOVLW  1F
015C:  MOVWF  3D
015D:  CALL   0F2
.................... 	LCD_texto(0b00000000); 
015E:  CLRF   3D
015F:  CALL   0F2
....................  
.................... 	LCD_texto(0b00001110); 
0160:  MOVLW  0E
0161:  MOVWF  3D
0162:  CALL   0F2
.................... 	LCD_texto(0b00010001); 
0163:  MOVLW  11
0164:  MOVWF  3D
0165:  CALL   0F2
.................... 	LCD_texto(0b00010001); 
0166:  MOVLW  11
0167:  MOVWF  3D
0168:  CALL   0F2
.................... 	LCD_texto(0b00010001); 
0169:  MOVLW  11
016A:  MOVWF  3D
016B:  CALL   0F2
.................... 	LCD_texto(0b00011111); 
016C:  MOVLW  1F
016D:  MOVWF  3D
016E:  CALL   0F2
.................... 	LCD_texto(0b00011111); 
016F:  MOVLW  1F
0170:  MOVWF  3D
0171:  CALL   0F2
.................... 	LCD_texto(0b00011111); 
0172:  MOVLW  1F
0173:  MOVWF  3D
0174:  CALL   0F2
.................... 	LCD_texto(0b00000000); 
0175:  CLRF   3D
0176:  CALL   0F2
....................  
.................... 	LCD_texto(0b00001110); 
0177:  MOVLW  0E
0178:  MOVWF  3D
0179:  CALL   0F2
.................... 	LCD_texto(0b00011111); 
017A:  MOVLW  1F
017B:  MOVWF  3D
017C:  CALL   0F2
.................... 	LCD_texto(0b00011111); 
017D:  MOVLW  1F
017E:  MOVWF  3D
017F:  CALL   0F2
.................... 	LCD_texto(0b00011111); 
0180:  MOVLW  1F
0181:  MOVWF  3D
0182:  CALL   0F2
.................... 	LCD_texto(0b00011111); 
0183:  MOVLW  1F
0184:  MOVWF  3D
0185:  CALL   0F2
.................... 	LCD_texto(0b00011111); 
0186:  MOVLW  1F
0187:  MOVWF  3D
0188:  CALL   0F2
.................... 	LCD_texto(0b00011111); 
0189:  MOVLW  1F
018A:  MOVWF  3D
018B:  CALL   0F2
.................... 	LCD_texto(0b00000000); 
018C:  CLRF   3D
018D:  CALL   0F2
....................  
.................... 	LCD_texto(0b00001110); 
018E:  MOVLW  0E
018F:  MOVWF  3D
0190:  CALL   0F2
.................... 	LCD_texto(0b00010001); 
0191:  MOVLW  11
0192:  MOVWF  3D
0193:  CALL   0F2
.................... 	LCD_texto(0b00010001); 
0194:  MOVLW  11
0195:  MOVWF  3D
0196:  CALL   0F2
.................... 	LCD_texto(0b00011111); 
0197:  MOVLW  1F
0198:  MOVWF  3D
0199:  CALL   0F2
.................... 	LCD_texto(0b00011011); 
019A:  MOVLW  1B
019B:  MOVWF  3D
019C:  CALL   0F2
.................... 	LCD_texto(0b00011011); 
019D:  MOVLW  1B
019E:  MOVWF  3D
019F:  CALL   0F2
.................... 	LCD_texto(0b00011111); 
01A0:  MOVLW  1F
01A1:  MOVWF  3D
01A2:  CALL   0F2
.................... 	LCD_texto(0b00000000); 
01A3:  CLRF   3D
01A4:  CALL   0F2
....................  
.................... 	LCD_texto(0b00000001); 
01A5:  MOVLW  01
01A6:  MOVWF  3D
01A7:  CALL   0F2
.................... 	LCD_texto(0b00000011); 
01A8:  MOVLW  03
01A9:  MOVWF  3D
01AA:  CALL   0F2
.................... 	LCD_texto(0b00001101); 
01AB:  MOVLW  0D
01AC:  MOVWF  3D
01AD:  CALL   0F2
.................... 	LCD_texto(0b00011101); 
01AE:  MOVLW  1D
01AF:  MOVWF  3D
01B0:  CALL   0F2
.................... 	LCD_texto(0b00001101); 
01B1:  MOVLW  0D
01B2:  MOVWF  3D
01B3:  CALL   0F2
.................... 	LCD_texto(0b00000011); 
01B4:  MOVLW  03
01B5:  MOVWF  3D
01B6:  CALL   0F2
.................... 	LCD_texto(0b00000001); 
01B7:  MOVLW  01
01B8:  MOVWF  3D
01B9:  CALL   0F2
.................... 	LCD_texto(0b00000000); 
01BA:  CLRF   3D
01BB:  CALL   0F2
01BC:  GOTO   4C1 (RETURN)
....................  
.................... } 
....................  
....................  
....................  
.................... float pago, z=5.125, x=6.057, y=3.14159265; 
....................  
.................... void main(){ 
*
04A0:  CLRF   27
04A1:  CLRF   26
04A2:  MOVLW  24
04A3:  MOVWF  25
04A4:  MOVLW  81
04A5:  MOVWF  24
04A6:  MOVLW  F2
04A7:  MOVWF  2B
04A8:  MOVLW  D2
04A9:  MOVWF  2A
04AA:  MOVLW  41
04AB:  MOVWF  29
04AC:  MOVLW  81
04AD:  MOVWF  28
04AE:  MOVLW  DB
04AF:  MOVWF  2F
04B0:  MOVLW  0F
04B1:  MOVWF  2E
04B2:  MOVLW  49
04B3:  MOVWF  2D
04B4:  MOVLW  80
04B5:  MOVWF  2C
04B6:  MOVLW  07
04B7:  MOVWF  1F
04B8:  BCF    03.7
04B9:  MOVLW  1F
04BA:  ANDWF  03,F
.................... 	set_tris_b(0x00); 
04BB:  MOVLW  00
04BC:  BSF    03.5
04BD:  MOVWF  06
.................... 	inicia_lcd(); 
04BE:  BCF    03.5
04BF:  GOTO   0D2
.................... 	characteres(); 
04C0:  GOTO   109
....................  
.................... 	while(true){ 
.................... 		LCD_comando(Linha_1); 
04C1:  MOVLW  80
04C2:  MOVWF  30
04C3:  CALL   0BB
.................... 		printf(LCD_texto, "  ABMS Telecom"); 
04C4:  CLRF   30
04C5:  MOVF   30,W
04C6:  CALL   004
04C7:  INCF   30,F
04C8:  MOVWF  77
04C9:  MOVWF  3D
04CA:  CALL   0F2
04CB:  MOVLW  0E
04CC:  SUBWF  30,W
04CD:  BTFSS  03.2
04CE:  GOTO   4C5
.................... 		LCD_comando(Linha_2); 
04CF:  MOVLW  C0
04D0:  MOVWF  30
04D1:  CALL   0BB
.................... 		LCD_texto("   Bem vindo!"); 
04D2:  CLRF   30
04D3:  MOVF   30,W
04D4:  CALL   017
04D5:  IORLW  00
04D6:  BTFSC  03.2
04D7:  GOTO   4DC
04D8:  INCF   30,F
04D9:  MOVWF  3D
04DA:  CALL   0F2
04DB:  GOTO   4D3
.................... 		delay_ms(1500); 
04DC:  MOVLW  06
04DD:  MOVWF  30
04DE:  MOVLW  FA
04DF:  MOVWF  40
04E0:  CALL   086
04E1:  DECFSZ 30,F
04E2:  GOTO   4DE
.................... 		LCD_comando(Limpa_LCD); 
04E3:  MOVLW  01
04E4:  MOVWF  30
04E5:  CALL   0BB
.................... 		delay_ms(20); 
04E6:  MOVLW  14
04E7:  MOVWF  40
04E8:  CALL   086
....................  
.................... 		LCD_comando(Linha_1); 
04E9:  MOVLW  80
04EA:  MOVWF  30
04EB:  CALL   0BB
.................... 		printf(LCD_texto, "  Curso de PIC"); 
04EC:  CLRF   30
04ED:  MOVF   30,W
04EE:  CALL   029
04EF:  INCF   30,F
04F0:  MOVWF  77
04F1:  MOVWF  3D
04F2:  CALL   0F2
04F3:  MOVLW  0E
04F4:  SUBWF  30,W
04F5:  BTFSS  03.2
04F6:  GOTO   4ED
.................... 		LCD_comando(Linha_2); 
04F7:  MOVLW  C0
04F8:  MOVWF  30
04F9:  CALL   0BB
.................... 		LCD_texto("    Jan 2023"); 
04FA:  CLRF   30
04FB:  MOVF   30,W
04FC:  CALL   03C
04FD:  IORLW  00
04FE:  BTFSC  03.2
04FF:  GOTO   504
0500:  INCF   30,F
0501:  MOVWF  3D
0502:  CALL   0F2
0503:  GOTO   4FB
.................... 		delay_ms(1500); 
0504:  MOVLW  06
0505:  MOVWF  30
0506:  MOVLW  FA
0507:  MOVWF  40
0508:  CALL   086
0509:  DECFSZ 30,F
050A:  GOTO   506
.................... 		LCD_comando(Limpa_LCD); 
050B:  MOVLW  01
050C:  MOVWF  30
050D:  CALL   0BB
.................... 		delay_ms(20); 
050E:  MOVLW  14
050F:  MOVWF  40
0510:  CALL   086
....................  
.................... 		LCD_comando(Linha_1); 
0511:  MOVLW  80
0512:  MOVWF  30
0513:  CALL   0BB
.................... 		LCD_texto("   Caracteres");	 
0514:  CLRF   30
0515:  MOVF   30,W
0516:  CALL   04D
0517:  IORLW  00
0518:  BTFSC  03.2
0519:  GOTO   51E
051A:  INCF   30,F
051B:  MOVWF  3D
051C:  CALL   0F2
051D:  GOTO   515
.................... 		delay_ms(20); 
051E:  MOVLW  14
051F:  MOVWF  40
0520:  CALL   086
.................... 		LCD_comando(Linha_2); 
0521:  MOVLW  C0
0522:  MOVWF  30
0523:  CALL   0BB
.................... 		printf(LCD_texto, " %c %c %c %c %c %c %c %c", 0x00, 0x01, 0x02, 0x03, 0x04, 0x05, 0x06, 0x07); 
0524:  MOVLW  20
0525:  MOVWF  3D
0526:  CALL   0F2
0527:  CLRF   3D
0528:  CALL   0F2
0529:  MOVLW  20
052A:  MOVWF  3D
052B:  CALL   0F2
052C:  MOVLW  01
052D:  MOVWF  3D
052E:  CALL   0F2
052F:  MOVLW  20
0530:  MOVWF  3D
0531:  CALL   0F2
0532:  MOVLW  02
0533:  MOVWF  3D
0534:  CALL   0F2
0535:  MOVLW  20
0536:  MOVWF  3D
0537:  CALL   0F2
0538:  MOVLW  03
0539:  MOVWF  3D
053A:  CALL   0F2
053B:  MOVLW  20
053C:  MOVWF  3D
053D:  CALL   0F2
053E:  MOVLW  04
053F:  MOVWF  3D
0540:  CALL   0F2
0541:  MOVLW  20
0542:  MOVWF  3D
0543:  CALL   0F2
0544:  MOVLW  05
0545:  MOVWF  3D
0546:  CALL   0F2
0547:  MOVLW  20
0548:  MOVWF  3D
0549:  CALL   0F2
054A:  MOVLW  06
054B:  MOVWF  3D
054C:  CALL   0F2
054D:  MOVLW  20
054E:  MOVWF  3D
054F:  CALL   0F2
0550:  MOVLW  07
0551:  MOVWF  3D
0552:  CALL   0F2
.................... 		delay_ms(2000); 
0553:  MOVLW  08
0554:  MOVWF  30
0555:  MOVLW  FA
0556:  MOVWF  40
0557:  CALL   086
0558:  DECFSZ 30,F
0559:  GOTO   555
.................... 		LCD_comando(limpa_LCD); 
055A:  MOVLW  01
055B:  MOVWF  30
055C:  CALL   0BB
.................... 		delay_ms(500); 
055D:  MOVLW  02
055E:  MOVWF  30
055F:  MOVLW  FA
0560:  MOVWF  40
0561:  CALL   086
0562:  DECFSZ 30,F
0563:  GOTO   55F
....................  
.................... 		pago = x+y+z; 
0564:  BCF    03.1
0565:  MOVF   2B,W
0566:  MOVWF  37
0567:  MOVF   2A,W
0568:  MOVWF  36
0569:  MOVF   29,W
056A:  MOVWF  35
056B:  MOVF   28,W
056C:  MOVWF  34
056D:  MOVF   2F,W
056E:  MOVWF  3B
056F:  MOVF   2E,W
0570:  MOVWF  3A
0571:  MOVF   2D,W
0572:  MOVWF  39
0573:  MOVF   2C,W
0574:  MOVWF  38
0575:  CALL   1BD
0576:  MOVF   7A,W
0577:  MOVWF  33
0578:  MOVF   79,W
0579:  MOVWF  32
057A:  MOVF   78,W
057B:  MOVWF  31
057C:  MOVF   77,W
057D:  MOVWF  30
057E:  BCF    03.1
057F:  MOVF   7A,W
0580:  MOVWF  37
0581:  MOVF   79,W
0582:  MOVWF  36
0583:  MOVF   78,W
0584:  MOVWF  35
0585:  MOVF   77,W
0586:  MOVWF  34
0587:  MOVF   27,W
0588:  MOVWF  3B
0589:  MOVF   26,W
058A:  MOVWF  3A
058B:  MOVF   25,W
058C:  MOVWF  39
058D:  MOVF   24,W
058E:  MOVWF  38
058F:  CALL   1BD
0590:  MOVF   7A,W
0591:  MOVWF  23
0592:  MOVF   79,W
0593:  MOVWF  22
0594:  MOVF   78,W
0595:  MOVWF  21
0596:  MOVF   77,W
0597:  MOVWF  20
.................... 		LCD_comando(Linha_1); 
0598:  MOVLW  80
0599:  MOVWF  30
059A:  CALL   0BB
.................... 		printf(LCD_texto, "  Teste printf"); 
059B:  CLRF   30
059C:  MOVF   30,W
059D:  CALL   05F
059E:  INCF   30,F
059F:  MOVWF  77
05A0:  MOVWF  3D
05A1:  CALL   0F2
05A2:  MOVLW  0E
05A3:  SUBWF  30,W
05A4:  BTFSS  03.2
05A5:  GOTO   59C
.................... 		LCD_comando(Linha_2); 
05A6:  MOVLW  C0
05A7:  MOVWF  30
05A8:  CALL   0BB
.................... 		printf(LCD_texto, " Valor R$ %5.2f", pago); 
05A9:  CLRF   30
05AA:  MOVF   30,W
05AB:  CALL   072
05AC:  INCF   30,F
05AD:  MOVWF  77
05AE:  MOVWF  3D
05AF:  CALL   0F2
05B0:  MOVLW  0A
05B1:  SUBWF  30,W
05B2:  BTFSS  03.2
05B3:  GOTO   5AA
05B4:  MOVLW  04
05B5:  MOVWF  04
05B6:  MOVF   23,W
05B7:  MOVWF  33
05B8:  MOVF   22,W
05B9:  MOVWF  32
05BA:  MOVF   21,W
05BB:  MOVWF  31
05BC:  MOVF   20,W
05BD:  MOVWF  30
05BE:  MOVLW  02
05BF:  MOVWF  34
05C0:  GOTO   34D
.................... 		delay_ms(1500); 
05C1:  MOVLW  06
05C2:  MOVWF  30
05C3:  MOVLW  FA
05C4:  MOVWF  40
05C5:  CALL   086
05C6:  DECFSZ 30,F
05C7:  GOTO   5C3
.................... 		LCD_comando(Limpa_LCD); 
05C8:  MOVLW  01
05C9:  MOVWF  30
05CA:  CALL   0BB
.................... 		delay_ms(20); 
05CB:  MOVLW  14
05CC:  MOVWF  40
05CD:  CALL   086
05CE:  GOTO   4C1
....................  
.................... 	 
.................... 	} 
....................  
.................... } 
....................  
05CF:  SLEEP

Configuration Fuses:
   Word  1: 3F61   NOWDT PUT XT MCLR BROWNOUT NOLVP NOCPD NOPROTECT
