CCS PCM C Compiler, Version 5.007, 61971               21-jul-23 07:36

               Filename:   C:\Users\ABMS-Telecom\Documents\GitHub\Cursos_uC_PIC_Linguagem_C\SergioACastanoGiraldo\aula007\aula007.lst

               ROM used:   114 words (1%)
                           Largest free fragment is 2048
               RAM used:   8 (2%) at main() level
                           9 (2%) worst case
               Stack used: 0 locations
               Stack size: 8

*
0000:  MOVLW  00
0001:  MOVWF  0A
0002:  GOTO   027
0003:  NOP
.................... // DISPLAY 7 SEGMENTOS - CONTADOR CONTROLADO POR BOTÕES 
....................  
.................... #INCLUDE <16F887.H> 
.................... //////// Standard Header file for the PIC16F887 device //////////////// 
.................... #device PIC16F887 
0004:  BCF    0A.0
0005:  BCF    0A.1
0006:  BCF    0A.2
0007:  ADDWF  02,F
0008:  RETLW  3F
0009:  RETLW  06
000A:  RETLW  5B
000B:  RETLW  4F
000C:  RETLW  66
000D:  RETLW  6D
000E:  RETLW  7D
000F:  RETLW  07
0010:  RETLW  7F
0011:  RETLW  67
....................  
.................... #list 
....................  
.................... #USE DELAY(CLOCK=4000000) 
0012:  MOVLW  23
0013:  MOVWF  04
0014:  BCF    03.7
0015:  MOVF   00,W
0016:  BTFSC  03.2
0017:  GOTO   026
0018:  MOVLW  01
0019:  MOVWF  78
001A:  CLRF   77
001B:  DECFSZ 77,F
001C:  GOTO   01B
001D:  DECFSZ 78,F
001E:  GOTO   01A
001F:  MOVLW  4A
0020:  MOVWF  77
0021:  DECFSZ 77,F
0022:  GOTO   021
0023:  GOTO   024
0024:  DECFSZ 00,F
0025:  GOTO   018
0026:  RETURN
.................... #FUSES XT,NOPROTECT,NOWDT,NOBROWNOUT,PUT,NOLVP 
.................... BYTE CONST DISPLAY[10]= {0x3f,0x06,0x5b,0x4f,0x66,0x6d,0x7d,0x07,0x7f,0x67}; 
.................... #BYTE PORTB=6 
.................... #BYTE PORTC=7 
.................... #DEFINE SW1 PORTC,0 
.................... #DEFINE SW2 PORTC,1 
.................... #DEFINE LED PORTC,2 
.................... INT CONTADOR; 
....................  
.................... VOID MAIN() 
0027:  MOVLW  FF
0028:  MOVWF  21
0029:  BSF    03.5
002A:  BSF    03.6
002B:  MOVF   09,W
002C:  ANDLW  C0
002D:  MOVWF  09
002E:  BCF    03.6
002F:  BCF    1F.4
0030:  BCF    1F.5
0031:  MOVLW  00
0032:  BSF    03.6
0033:  MOVWF  08
0034:  BCF    03.5
0035:  CLRF   07
0036:  CLRF   08
0037:  CLRF   09
0038:  BCF    03.7
0039:  MOVLW  1F
003A:  ANDWF  03,F
.................... { 
....................    SET_TRIS_B(0B00000000);             //Configura el puerto B 
003B:  MOVLW  00
003C:  BSF    03.5
003D:  BCF    03.6
003E:  MOVWF  06
....................    SET_TRIS_C(0B00000011);             //Configura el puerto B 
003F:  MOVLW  03
0040:  MOVWF  07
0041:  BCF    03.5
0042:  MOVWF  21
....................    CONTADOR = 0;                       // Inicializa contador en cero 
0043:  CLRF   20
....................    WHILE(TRUE)                         // Haga por siempre 
....................    { 
....................       PORTB= DISPLAY[CONTADOR]; 
0044:  MOVF   20,W
0045:  CALL   004
0046:  MOVWF  78
0047:  MOVWF  06
....................       BIT_CLEAR(LED); 
0048:  BCF    07.2
....................       IF (BIT_TEST(SW1)) 
0049:  BTFSS  07.0
004A:  GOTO   059
....................       { 
....................          DELAY_MS(200);                // Antirrebote 
004B:  MOVLW  C8
004C:  MOVWF  23
004D:  CALL   012
....................          while (BIT_TEST(SW1)); 
004E:  BTFSC  07.0
004F:  GOTO   04E
....................          CONTADOR++; 
0050:  INCF   20,F
....................          PORTB= DISPLAY[CONTADOR]; 
0051:  MOVF   20,W
0052:  CALL   004
0053:  MOVWF  78
0054:  MOVWF  06
....................          IF(CONTADOR==10) 
0055:  MOVF   20,W
0056:  SUBLW  0A
0057:  BTFSC  03.2
....................          { 
....................             CONTADOR=0; 
0058:  CLRF   20
....................          } 
....................       } 
....................       IF (BIT_TEST(SW2)) 
0059:  BTFSS  07.1
005A:  GOTO   070
....................       { 
....................          DELAY_MS(200);             //Antirrebote 
005B:  MOVLW  C8
005C:  MOVWF  23
005D:  CALL   012
....................          BIT_SET(LED); 
005E:  BSF    07.2
....................          WHILE (CONTADOR>0) 
005F:  MOVF   20,F
0060:  BTFSC  03.2
0061:  GOTO   06F
....................          { 
....................             PORTB= DISPLAY[CONTADOR]; 
0062:  MOVF   20,W
0063:  CALL   004
0064:  MOVWF  78
0065:  MOVWF  06
....................             DELAY_MS(1000); 
0066:  MOVLW  04
0067:  MOVWF  22
0068:  MOVLW  FA
0069:  MOVWF  23
006A:  CALL   012
006B:  DECFSZ 22,F
006C:  GOTO   068
....................             CONTADOR--; 
006D:  DECF   20,F
006E:  GOTO   05F
....................          } 
....................          BIT_CLEAR(LED); 
006F:  BCF    07.2
....................       } 
0070:  GOTO   044
....................    } 
.................... } 
0071:  SLEEP

Configuration Fuses:
   Word  1: 2CE1   XT NOWDT PUT MCLR NOPROTECT NOCPD NOBROWNOUT IESO FCMEN NOLVP NODEBUG
   Word  2: 3FFF   BORV40 NOWRT
