CCS PCM C Compiler, Version 5.007, 61971               18-jun-23 09:39

               Filename:   C:\Users\ABMS-Telecom\Documents\GitHub\Cursos_uC_PIC_Linguagem_C\WR_Kits_Curso_PIC\Arquivos C\aula054\CCS\aula054.lst

               ROM used:   92 words (4%)
                           Largest free fragment is 1956
               RAM used:   15 (7%) at main() level
                           15 (7%) worst case
               Stack used: 1 locations (0 in main + 1 for interrupts)
               Stack size: 7

*
0000:  NOP
0001:  MOVLW  00
0002:  MOVWF  0A
0003:  GOTO   044
0004:  MOVWF  7F
0005:  SWAPF  03,W
0006:  CLRF   03
0007:  MOVWF  21
0008:  MOVF   7F,W
0009:  MOVWF  20
000A:  MOVF   0A,W
000B:  MOVWF  27
000C:  CLRF   0A
000D:  SWAPF  20,F
000E:  MOVF   04,W
000F:  MOVWF  22
0010:  MOVF   77,W
0011:  MOVWF  23
0012:  MOVF   78,W
0013:  MOVWF  24
0014:  MOVF   79,W
0015:  MOVWF  25
0016:  MOVF   7A,W
0017:  MOVWF  26
0018:  BCF    03.7
0019:  BCF    03.5
001A:  BTFSS  0B.5
001B:  GOTO   01E
001C:  BTFSC  0B.2
001D:  GOTO   02F
001E:  MOVF   22,W
001F:  MOVWF  04
0020:  MOVF   23,W
0021:  MOVWF  77
0022:  MOVF   24,W
0023:  MOVWF  78
0024:  MOVF   25,W
0025:  MOVWF  79
0026:  MOVF   26,W
0027:  MOVWF  7A
0028:  MOVF   27,W
0029:  MOVWF  0A
002A:  SWAPF  21,W
002B:  MOVWF  03
002C:  SWAPF  7F,F
002D:  SWAPF  7F,W
002E:  RETFIE
....................  
.................... #include <16F628A.h> 
.................... //////// Standard Header file for the PIC16F628A device //////////////// 
.................... #device PIC16F628A 
....................  
.................... #list 
....................  
.................... #fuses xt, nowdt, put, mclr, nobrownout, nolvp, nocpd, noprotect 
.................... #use delay(clock = 4M) 
....................  
.................... #define LED1      pin_a3 
.................... #define LED2      pin_a2 
.................... #define S1        pin_a1 
.................... #define S2        pin_a0 
....................  
.................... #define output    pin_b7 
....................  
.................... unsigned int16 counter = 0; 
....................  
.................... #INT_TIMER0 
.................... void timer0_int(void){ 
....................    SET_TIMER0(6); 
002F:  MOVLW  06
0030:  MOVWF  01
....................    counter++; 
0031:  INCF   28,F
0032:  BTFSC  03.2
0033:  INCF   29,F
....................    if(counter == 500){ 
0034:  MOVF   28,W
0035:  SUBLW  F4
0036:  BTFSS  03.2
0037:  GOTO   041
0038:  DECFSZ 29,W
0039:  GOTO   041
....................       counter = 0; 
003A:  CLRF   29
003B:  CLRF   28
....................       output_toggle(output); 
003C:  BSF    03.5
003D:  BCF    06.7
003E:  MOVLW  80
003F:  BCF    03.5
0040:  XORWF  06,F
....................    } 
0041:  BCF    0B.2
0042:  BCF    0A.3
0043:  GOTO   01E
.................... } 
....................  
.................... void main() 
0044:  CLRF   29
0045:  CLRF   28
0046:  MOVLW  07
0047:  MOVWF  1F
0048:  BCF    03.7
0049:  MOVLW  1F
004A:  ANDWF  03,F
.................... { 
....................    output_low(output); 
004B:  BSF    03.5
004C:  BCF    06.7
004D:  BCF    03.5
004E:  BCF    06.7
....................     
....................    ENABLE_INTERRUPTS(GLOBAL); 
004F:  MOVLW  C0
0050:  IORWF  0B,F
....................    ENABLE_INTERRUPTS(INT_TIMER0); 
0051:  BSF    0B.5
....................    SETUP_TIMER_0(RTCC_INTERNAL | RTCC_8_BIT | RTCC_DIV_4); 
0052:  BSF    03.5
0053:  MOVF   01,W
0054:  ANDLW  C0
0055:  IORLW  01
0056:  MOVWF  01
....................    SET_TIMER0(6); 
0057:  MOVLW  06
0058:  BCF    03.5
0059:  MOVWF  01
....................     
....................    while(TRUE) 
....................    { 
005A:  GOTO   05A
....................        
....................    } 
....................  
.................... } 
005B:  GOTO   05B

Configuration Fuses:
   Word  1: 3F09   NOWDT NOPUT XT NOMCLR NOBROWNOUT NOLVP NOCPD NOPROTECT

   Some fuses have been forced to be compatible with the ICD debugger.
