CCS PCM C Compiler, Version 5.007, 61971               30-mai-23 08:04

               Filename:   C:\Users\ABMS-Telecom\Documents\CCS C Projects\PiscaLed\PiscaLed.lst

               ROM used:   97 words (9%)
                           Largest free fragment is 927
               RAM used:   6 (9%) at main() level
                           7 (11%) worst case
               Stack used: 0 locations
               Stack size: 8

*
0000:  MOVLW  00
0001:  MOVWF  0A
0002:  GOTO   004
0003:  NOP
0004:  CALL   3FF
0005:  BSF    03.5
0006:  MOVWF  10
0007:  MOVLW  00
0008:  MOVWF  0A
0009:  GOTO   034
.................... #include <PiscaLed.h> 
.................... #include <12F675.h> 
.................... //////// Standard Header file for the PIC12F675 device //////////////// 
.................... #device PIC12F675 
....................  
.................... #list 
....................  
.................... #device ADC=16 
....................  
.................... #FUSES NOWDT                    //No Watch Dog Timer 
.................... #FUSES NOBROWNOUT               //No brownout reset 
.................... #FUSES INTRC 
.................... #FUSES NOCPD 
.................... #FUSES NOMCLR 
.................... #FUSES PUT 
.................... #FUSES NOPROTECT 
....................  
.................... #use delay(internal=4MHz) 
*
0020:  MOVLW  26
0021:  MOVWF  04
0022:  MOVF   00,W
0023:  BTFSC  03.2
0024:  GOTO   033
0025:  MOVLW  01
0026:  MOVWF  21
0027:  CLRF   20
0028:  DECFSZ 20,F
0029:  GOTO   028
002A:  DECFSZ 21,F
002B:  GOTO   027
002C:  MOVLW  4A
002D:  MOVWF  20
002E:  DECFSZ 20,F
002F:  GOTO   02E
0030:  GOTO   031
0031:  DECFSZ 00,F
0032:  GOTO   025
0033:  GOTO   05D (RETURN)
.................... #define LED_1 PIN_A4 
.................... #define LED_2 PIN_A5 
....................  
.................... int1 pisca = 0; // int1 é uma variável booleana de 1 bit 
....................  
.................... void pisca_led(void) 
.................... { 
....................    if(pisca == true){ 
*
000A:  BTFSS  24.0
000B:  GOTO   016
....................          output_low(LED_1); 
000C:  BSF    03.5
000D:  BCF    05.4
000E:  BCF    03.5
000F:  BCF    05.4
....................          output_high(LED_2); 
0010:  BSF    03.5
0011:  BCF    05.5
0012:  BCF    03.5
0013:  BSF    05.5
....................          pisca = false; 
0014:  BCF    24.0
....................    } else { 
0015:  GOTO   01F
....................       output_high(LED_1); 
0016:  BSF    03.5
0017:  BCF    05.4
0018:  BCF    03.5
0019:  BSF    05.4
....................       output_low(LED_2); 
001A:  BSF    03.5
001B:  BCF    05.5
001C:  BCF    03.5
001D:  BCF    05.5
....................       pisca = true; 
001E:  BSF    24.0
....................    } 
001F:  GOTO   058 (RETURN)
....................  
.................... } 
....................  
.................... void main(){ 
*
0034:  BCF    24.0
0035:  BCF    1F.6
0036:  BSF    03.5
0037:  BCF    1F.0
0038:  BCF    1F.1
0039:  BCF    1F.2
003A:  BCF    1F.3
003B:  MOVLW  07
003C:  BCF    03.5
003D:  MOVWF  19
003E:  MOVLW  1F
003F:  ANDWF  03,F
....................     
....................    setup_adc(ADC_OFF); 
0040:  BCF    1F.0
....................    setup_comparator(NC_NC); 
0041:  MOVLW  07
0042:  MOVWF  19
0043:  BSF    03.5
0044:  MOVF   05,W
0045:  MOVWF  05
0046:  MOVLW  02
0047:  BCF    03.5
0048:  MOVWF  20
0049:  DECFSZ 20,F
004A:  GOTO   049
004B:  GOTO   04C
004C:  NOP
004D:  MOVF   19,W
004E:  BCF    0C.3
....................    output_low(LED_1); 
004F:  BSF    03.5
0050:  BCF    05.4
0051:  BCF    03.5
0052:  BCF    05.4
....................    output_low(LED_2); 
0053:  BSF    03.5
0054:  BCF    05.5
0055:  BCF    03.5
0056:  BCF    05.5
....................    while(true){ 
....................       pisca_led(); 
0057:  GOTO   00A
....................       delay_ms(1000); 
0058:  MOVLW  04
0059:  MOVWF  25
005A:  MOVLW  FA
005B:  MOVWF  26
005C:  GOTO   020
005D:  DECFSZ 25,F
005E:  GOTO   05A
005F:  GOTO   057
....................    } 
.................... } 
0060:  SLEEP

Configuration Fuses:
   Word  1: 3F84   INTRC_IO NOWDT PUT NOMCLR NOBROWNOUT NOPROTECT NOCPD
