CCS PCM C Compiler, Version 5.007, 61971               11-jan-23 11:04

               Filename:   C:\Users\ABMS-Telecom\Documents\PIC MP LAB\CODIFICADOS\aula004\aula004.lst

               ROM used:   71 words (3%)
                           Largest free fragment is 1977
               RAM used:   7 (3%) at main() level
                           8 (4%) worst case
               Stack used: 0 locations
               Stack size: 8

*
0000:  MOVLW  00
0001:  MOVWF  0A
0002:  GOTO   025
0003:  NOP
.................... #include <16f628a.h> 
.................... //////// Standard Header file for the PIC16F628A device //////////////// 
.................... #device PIC16F628A 
....................  
.................... #list 
....................  
.................... #fuses XT, NOLVP, NOWDT 
.................... #use delay(clock=4000000) 
0004:  MOVLW  22
0005:  MOVWF  04
0006:  BCF    03.7
0007:  MOVF   00,W
0008:  BTFSC  03.2
0009:  GOTO   018
000A:  MOVLW  01
000B:  MOVWF  78
000C:  CLRF   77
000D:  DECFSZ 77,F
000E:  GOTO   00D
000F:  DECFSZ 78,F
0010:  GOTO   00C
0011:  MOVLW  4A
0012:  MOVWF  77
0013:  DECFSZ 77,F
0014:  GOTO   013
0015:  GOTO   016
0016:  DECFSZ 00,F
0017:  GOTO   00A
0018:  RETURN
....................  
.................... /* 
.................... 	Canal CODIFICADOS - aula 004 
.................... 	Trabalhando com funções 
.................... */ 
....................  
.................... void piscaLed(); 
....................  
.................... int dado = 0; 
....................  
.................... void main(){ 
*
0025:  CLRF   20
0026:  MOVLW  07
0027:  MOVWF  1F
0028:  BCF    03.7
0029:  MOVLW  1F
002A:  ANDWF  03,F
.................... 	while(true){ 
.................... 		if(!input(pin_a0)){ 
002B:  BSF    03.5
002C:  BSF    05.0
002D:  BCF    03.5
002E:  BTFSC  05.0
002F:  GOTO   038
.................... 			delay_ms(300); 
0030:  MOVLW  02
0031:  MOVWF  21
0032:  MOVLW  96
0033:  MOVWF  22
0034:  CALL   004
0035:  DECFSZ 21,F
0036:  GOTO   032
.................... 			piscaLed();	 
0037:  CALL   019
.................... 		} 
.................... 		if(!input(pin_a1)){ 
0038:  BSF    03.5
0039:  BSF    05.1
003A:  BCF    03.5
003B:  BTFSC  05.1
003C:  GOTO   045
.................... 			delay_ms(300); 
003D:  MOVLW  02
003E:  MOVWF  21
003F:  MOVLW  96
0040:  MOVWF  22
0041:  CALL   004
0042:  DECFSZ 21,F
0043:  GOTO   03F
.................... 			piscaLed();	 
0044:  CALL   019
.................... 		} 
0045:  GOTO   02B
.................... 	} 
.................... } 
....................  
0046:  SLEEP
.................... void piscaLed(){ 
.................... 	output_high(pin_b0); 
*
0019:  BSF    03.5
001A:  BCF    06.0
001B:  BCF    03.5
001C:  BSF    06.0
.................... 	delay_ms(200); 
001D:  MOVLW  C8
001E:  MOVWF  22
001F:  CALL   004
.................... 	output_low(pin_b0); 
0020:  BSF    03.5
0021:  BCF    06.0
0022:  BCF    03.5
0023:  BCF    06.0
0024:  RETURN
.................... } 

Configuration Fuses:
   Word  1: 3F61   NOWDT PUT XT MCLR BROWNOUT NOLVP NOCPD NOPROTECT
